; Function Attrs: nounwind sspstrong uwtable
define internal void @prop_get_bit64(ptr noundef readonly captures(none) %obj, ptr noundef %v, ptr noundef %name, ptr noundef readonly captures(none) %opaque, ptr noundef %errp) #0 {
entry:
  %value = alloca i8, align 1
  %info.i = getelementptr inbounds nuw i8, ptr %opaque, i64 8
  %0 = load ptr, ptr %info.i, align 8
  %cmp.i = icmp eq ptr %0, @qdev_prop_bit64
  br i1 %cmp.i, label %qdev_get_prop_mask64.exit, label %if.else.i

if.else.i:                                        ; preds = %entry
  tail call void @__assert_fail(ptr noundef nonnull @.str.28, ptr noundef nonnull @.str, i32 noundef 191, ptr noundef nonnull @__PRETTY_FUNCTION__.qdev_get_prop_mask64) #10
  unreachable

qdev_get_prop_mask64.exit:                        ; preds = %entry
  %offset.i = getelementptr inbounds nuw i8, ptr %opaque, i64 16
  %1 = load i64, ptr %offset.i, align 8
  %add.ptr.i = getelementptr i8, ptr %obj, i64 %1
  %2 = load i64, ptr %add.ptr.i, align 8
  %bitnr.i = getelementptr inbounds nuw i8, ptr %opaque, i64 24
  %3 = load i8, ptr %bitnr.i, align 8
  %sh_prom.i = zext nneg i8 %3 to i64
  %4 = lshr i64 %2, %sh_prom.i
  %5 = trunc i64 %4 to i8
  %frombool = and i8 %5, 1
  store i8 %frombool, ptr %value, align 1
  %call2 = call zeroext i1 @visit_type_bool(ptr noundef %v, ptr noundef %name, ptr noundef nonnull %value, ptr noundef %errp) #9
  ret void
}